target datalayout = "e-m:e-p270:32:32-p271:32:32-p272:64:64-i64:64-i128:128-f80:128-n8:16:32:64-S128"
target triple = "x86_64-pc-linux-gnu"

%struct.Vec_Int_t_ = type { i32, i32, ptr }
%struct.Bac_Ntk_t_ = type { ptr, i32, i32, i32, i32, i32, i32, %struct.Vec_Int_t_, %struct.Vec_Int_t_, %struct.Vec_Int_t_, %struct.Vec_Str_t_, %struct.Vec_Int_t_, %struct.Vec_Int_t_, %struct.Vec_Int_t_, %struct.Vec_Int_t_, %struct.Vec_Int_t_, %struct.Vec_Int_t_, %struct.Vec_Int_t_ }
%struct.Vec_Str_t_ = type { i32, i32, ptr }
%struct.Bac_Man_t_ = type { ptr, ptr, ptr, ptr, i32, i32, ptr, ptr, ptr, %struct.Vec_Int_t_, %struct.Vec_Int_t_, %struct.Vec_Int_t_, %struct.Vec_Int_t_, ptr, ptr, [4 x i32], [73 x ptr], [73 x ptr] }

@.str = private unnamed_addr constant [3 x i8] c"wb\00", align 1
@.str.1 = private unnamed_addr constant [31 x i8] c"Cannot open output file \22%s\22.\0A\00", align 1
@.str.14 = private unnamed_addr constant [75 x i8] c"Genlib library used in the mapped design is not longer a current library.\0A\00", align 1
@.str.15 = private unnamed_addr constant [53 x i8] c"# Design \22%s\22 written via CBA package in ABC on %s\0A\0A\00", align 1

; Function Attrs: inlinehint nounwind uwtable
define internal i32 @Bac_ManNtkIsOk(ptr noundef %0, i32 noundef %1) #2 {
  %3 = alloca ptr, align 8
  %4 = alloca i32, align 4
  store ptr %0, ptr %3, align 8, !tbaa !54
  store i32 %1, ptr %4, align 4, !tbaa !20
  %5 = load i32, ptr %4, align 4, !tbaa !20
  %6 = icmp sgt i32 %5, 0
  br i1 %6, label %7, label %12

7:                                                ; preds = %2
  %8 = load i32, ptr %4, align 4, !tbaa !20
  %9 = load ptr, ptr %3, align 8, !tbaa !54
  %10 = call i32 @Bac_ManNtkNum(ptr noundef %9)
  %11 = icmp sle i32 %8, %10
  br label %12

12:                                               ; preds = %7, %2
  %13 = phi i1 [ false, %2 ], [ %11, %7 ]
  %14 = zext i1 %13 to i32
  ret i32 %14
}

; Function Attrs: inlinehint nounwind uwtable
define internal ptr @Bac_ManNtk(ptr noundef %0, i32 noundef %1) #2 {
  %3 = alloca ptr, align 8
  %4 = alloca i32, align 4
  store ptr %0, ptr %3, align 8, !tbaa !54
  store i32 %1, ptr %4, align 4, !tbaa !20
  %5 = load ptr, ptr %3, align 8, !tbaa !54
  %6 = load i32, ptr %4, align 4, !tbaa !20
  %7 = call i32 @Bac_ManNtkIsOk(ptr noundef %5, i32 noundef %6)
  %8 = icmp ne i32 %7, 0
  br i1 %8, label %9, label %16

9:                                                ; preds = %2
  %10 = load ptr, ptr %3, align 8, !tbaa !54
  %11 = getelementptr inbounds nuw %struct.Bac_Man_t_, ptr %10, i32 0, i32 6
  %12 = load ptr, ptr %11, align 8, !tbaa !59
  %13 = load i32, ptr %4, align 4, !tbaa !20
  %14 = sext i32 %13 to i64
  %15 = getelementptr inbounds %struct.Bac_Ntk_t_, ptr %12, i64 %14
  br label %17

16:                                               ; preds = %2
  br label %17

17:                                               ; preds = %16, %9
  %18 = phi ptr [ %15, %9 ], [ null, %16 ]
  ret ptr %18
}

; Function Attrs: inlinehint nounwind uwtable
define internal i32 @Bac_ManNtkNum(ptr noundef %0) #2 {
  %2 = alloca ptr, align 8
  store ptr %0, ptr %2, align 8, !tbaa !54
  %3 = load ptr, ptr %2, align 8, !tbaa !54
  %4 = getelementptr inbounds nuw %struct.Bac_Man_t_, ptr %3, i32 0, i32 5
  %5 = load i32, ptr %4, align 4, !tbaa !58
  ret i32 %5
}

; Function Attrs: inlinehint nounwind uwtable
define internal ptr @Bac_ManName(ptr noundef %0) #2 {
  %2 = alloca ptr, align 8
  store ptr %0, ptr %2, align 8, !tbaa !54
  %3 = load ptr, ptr %2, align 8, !tbaa !54
  %4 = getelementptr inbounds nuw %struct.Bac_Man_t_, ptr %3, i32 0, i32 0
  %5 = load ptr, ptr %4, align 8, !tbaa !57
  ret ptr %5
}

; Function Attrs: nounwind uwtable
define void @Bac_ManWriteBlif(ptr noundef %0, ptr noundef %1) #0 {
  %3 = alloca ptr, align 8
  %4 = alloca ptr, align 8
  %5 = alloca ptr, align 8
  %6 = alloca ptr, align 8
  %7 = alloca i32, align 4
  %8 = alloca i32, align 4
  store ptr %0, ptr %3, align 8, !tbaa !3
  store ptr %1, ptr %4, align 8, !tbaa !54
  call void @llvm.lifetime.start.p0(i64 8, ptr %5) #5
  call void @llvm.lifetime.start.p0(i64 8, ptr %6) #5
  call void @llvm.lifetime.start.p0(i64 4, ptr %7) #5
  %9 = load ptr, ptr %4, align 8, !tbaa !54
  %10 = getelementptr inbounds nuw %struct.Bac_Man_t_, ptr %9, i32 0, i32 13
  %11 = load ptr, ptr %10, align 8, !tbaa !55
  %12 = icmp ne ptr %11, null
  br i1 %12, label %13, label %21

13:                                               ; preds = %2
  %14 = load ptr, ptr %4, align 8, !tbaa !54
  %15 = getelementptr inbounds nuw %struct.Bac_Man_t_, ptr %14, i32 0, i32 13
  %16 = load ptr, ptr %15, align 8, !tbaa !55
  %17 = call ptr (...) @Abc_FrameReadLibGen()
  %18 = icmp ne ptr %16, %17
  br i1 %18, label %19, label %21

19:                                               ; preds = %13
  %20 = call i32 (ptr, ...) @printf(ptr noundef @.str.14)
  store i32 1, ptr %8, align 4
  br label %56

21:                                               ; preds = %13, %2
  %22 = load ptr, ptr %3, align 8, !tbaa !3
  %23 = call noalias ptr @fopen(ptr noundef %22, ptr noundef @.str)
  store ptr %23, ptr %5, align 8, !tbaa !12
  %24 = load ptr, ptr %5, align 8, !tbaa !12
  %25 = icmp eq ptr %24, null
  br i1 %25, label %26, label %29

26:                                               ; preds = %21
  %27 = load ptr, ptr %3, align 8, !tbaa !3
  %28 = call i32 (ptr, ...) @printf(ptr noundef @.str.1, ptr noundef %27)
  store i32 1, ptr %8, align 4
  br label %56

29:                                               ; preds = %21
  %30 = load ptr, ptr %5, align 8, !tbaa !12
  %31 = load ptr, ptr %4, align 8, !tbaa !54
  %32 = call ptr @Bac_ManName(ptr noundef %31)
  %33 = call ptr (...) @Extra_TimeStamp()
  %34 = call i32 (ptr, ptr, ...) @fprintf(ptr noundef %30, ptr noundef @.str.15, ptr noundef %32, ptr noundef %33) #5
  %35 = load ptr, ptr %4, align 8, !tbaa !54
  call void @Bac_ManAssignInternWordNames(ptr noundef %35)
  store i32 1, ptr %7, align 4, !tbaa !20
  br label %36

36:                                               ; preds = %50, %29
  %37 = load i32, ptr %7, align 4, !tbaa !20
  %38 = load ptr, ptr %4, align 8, !tbaa !54
  %39 = call i32 @Bac_ManNtkNum(ptr noundef %38)
  %40 = icmp sle i32 %37, %39
  br i1 %40, label %41, label %45

41:                                               ; preds = %36
  %42 = load ptr, ptr %4, align 8, !tbaa !54
  %43 = load i32, ptr %7, align 4, !tbaa !20
  %44 = call ptr @Bac_ManNtk(ptr noundef %42, i32 noundef %43)
  store ptr %44, ptr %6, align 8, !tbaa !28
  br label %45

45:                                               ; preds = %41, %36
  %46 = phi i1 [ false, %36 ], [ true, %41 ]
  br i1 %46, label %47, label %53

47:                                               ; preds = %45
  %48 = load ptr, ptr %5, align 8, !tbaa !12
  %49 = load ptr, ptr %6, align 8, !tbaa !28
  call void @Bac_ManWriteBlifNtk(ptr noundef %48, ptr noundef %49)
  br label %50

50:                                               ; preds = %47
  %51 = load i32, ptr %7, align 4, !tbaa !20
  %52 = add nsw i32 %51, 1
  store i32 %52, ptr %7, align 4, !tbaa !20
  br label %36, !llvm.loop !56

53:                                               ; preds = %45
  %54 = load ptr, ptr %5, align 8, !tbaa !12
  %55 = call i32 @fclose(ptr noundef %54)
  store i32 0, ptr %8, align 4
  br label %56

56:                                               ; preds = %53, %26, %19
  call void @llvm.lifetime.end.p0(i64 4, ptr %7) #5
  call void @llvm.lifetime.end.p0(i64 8, ptr %6) #5
  call void @llvm.lifetime.end.p0(i64 8, ptr %5) #5
  %57 = load i32, ptr %8, align 4
  switch i32 %57, label %59 [
    i32 0, label %58
    i32 1, label %58
  ]

58:                                               ; preds = %56, %56
  ret void

59:                                               ; preds = %56
  unreachable
}