; Function Attrs: nounwind uwtable
define void @Bac_ManWriteBlif(ptr noundef %0, ptr noundef %1) local_unnamed_addr #0 {
  %3 = getelementptr inbounds nuw i8, ptr %1, i64 128
  %4 = load ptr, ptr %3, align 8, !tbaa !51
  %.not = icmp eq ptr %4, null
  br i1 %.not, label %8, label %5

5:                                                ; preds = %2
  %6 = tail call ptr (...) @Abc_FrameReadLibGen() #5
  %.not17 = icmp eq ptr %4, %6
  br i1 %.not17, label %8, label %7

7:                                                ; preds = %5
  %puts = tail call i32 @puts(ptr nonnull dereferenceable(1) @str)
  br label %22

8:                                                ; preds = %5, %2
  %9 = tail call noalias ptr @fopen(ptr noundef %0, ptr noundef nonnull @.str)
  %10 = icmp eq ptr %9, null
  br i1 %10, label %11, label %13

11:                                               ; preds = %8
  %12 = tail call i32 (ptr, ...) @printf(ptr noundef nonnull dereferenceable(1) @.str.1, ptr noundef %0)
  br label %22

13:                                               ; preds = %8
  %.val19 = load ptr, ptr %1, align 8, !tbaa !52
  %14 = tail call ptr (...) @Extra_TimeStamp() #5
  %15 = tail call i32 (ptr, ptr, ...) @fprintf(ptr noundef nonnull %9, ptr noundef nonnull @.str.15, ptr noundef %.val19, ptr noundef %14) #5
  tail call void @Bac_ManAssignInternWordNames(ptr noundef nonnull %1) #5
  %16 = getelementptr i8, ptr %1, i64 36
  %.val20 = load i32, ptr %16, align 4, !tbaa !39
  %.not1821 = icmp slt i32 %.val20, 1
  br i1 %.not1821, label %.critedge, label %Bac_ManNtk.exit.lr.ph

Bac_ManNtk.exit.lr.ph:                            ; preds = %13
  %17 = getelementptr inbounds nuw i8, ptr %1, i64 40
  br label %Bac_ManNtk.exit

Bac_ManNtk.exit:                                  ; preds = %Bac_ManNtk.exit.lr.ph, %Bac_ManNtk.exit
  %indvars.iv = phi i64 [ 1, %Bac_ManNtk.exit.lr.ph ], [ %indvars.iv.next, %Bac_ManNtk.exit ]
  %18 = load ptr, ptr %17, align 8, !tbaa !40
  %19 = getelementptr inbounds nuw %struct.Bac_Ntk_t_, ptr %18, i64 %indvars.iv
  tail call void @Bac_ManWriteBlifNtk(ptr noundef nonnull %9, ptr noundef nonnull %19)
  %indvars.iv.next = add nuw nsw i64 %indvars.iv, 1
  %.val = load i32, ptr %16, align 4, !tbaa !39
  %20 = sext i32 %.val to i64
  %.not18.not = icmp slt i64 %indvars.iv, %20
  br i1 %.not18.not, label %Bac_ManNtk.exit, label %.critedge, !llvm.loop !53

.critedge:                                        ; preds = %Bac_ManNtk.exit, %13
  %21 = tail call i32 @fclose(ptr noundef nonnull %9)
  br label %22

22:                                               ; preds = %.critedge, %11, %7
  ret void
}